target datalayout = "e-m:e-p270:32:32-p271:32:32-p272:64:64-i64:64-i128:128-f80:128-n8:16:32:64-S128"
target triple = "x86_64-pc-linux-gnu"

@H5_libinit_g = external global i8, align 1
@H5_libterm_g = external global i8, align 1
@.str = private unnamed_addr constant [97 x i8] c"generated/home/dtcxzyw/WorkSpace/Projects/compilers/llvm-opt-benchmark/bench/hdf5/hdf5/src/H5I.c\00", align 1
@H5E_FUNC_g = external global i64, align 8
@H5E_CANTINIT_g = external global i64, align 8
@.str.1 = private unnamed_addr constant [30 x i8] c"library initialization failed\00", align 1
@H5E_CANTSET_g = external global i64, align 8
@.str.2 = private unnamed_addr constant [22 x i8] c"can't set API context\00", align 1
@H5E_ID_g = external global i64, align 8
@H5E_CANTREGISTER_g = external global i64, align 8
@.str.10 = private unnamed_addr constant [26 x i8] c"unable to register object\00", align 1
@__func__.H5Iregister_future = private unnamed_addr constant [19 x i8] c"H5Iregister_future\00", align 1
@H5E_BADVALUE_g = external global i64, align 8
@.str.11 = private unnamed_addr constant [40 x i8] c"NULL pointer for realize_cb not allowed\00", align 1

; Function Attrs: nounwind uwtable
define i64 @H5Iregister_future(i32 noundef %0, ptr noundef %1, ptr noundef %2, ptr noundef %3) #0 {
  %5 = alloca i32, align 4
  %6 = alloca ptr, align 8
  %7 = alloca ptr, align 8
  %8 = alloca ptr, align 8
  %9 = alloca i64, align 8
  %10 = alloca i8, align 1
  %11 = alloca i8, align 1
  store i32 %0, ptr %5, align 4
  store ptr %1, ptr %6, align 8
  store ptr %2, ptr %7, align 8
  store ptr %3, ptr %8, align 8
  store i64 -1, ptr %9, align 8
  store i8 0, ptr %10, align 1
  store i8 0, ptr %11, align 1
  %12 = load i8, ptr @H5_libinit_g, align 1
  %13 = trunc i8 %12 to i1
  br i1 %13, label %18, label %14

14:                                               ; preds = %4
  %15 = load i8, ptr @H5_libterm_g, align 1
  %16 = trunc i8 %15 to i1
  %17 = xor i1 %16, true
  br label %18

18:                                               ; preds = %14, %4
  %19 = phi i1 [ false, %4 ], [ %17, %14 ]
  %20 = xor i1 %19, true
  %21 = xor i1 %20, true
  %22 = zext i1 %21 to i32
  %23 = sext i32 %22 to i64
  %24 = icmp ne i64 %23, 0
  br i1 %24, label %25, label %49

25:                                               ; preds = %18
  %26 = call i32 @H5_init_library()
  %27 = icmp slt i32 %26, 0
  %28 = xor i1 %27, true
  %29 = xor i1 %28, true
  %30 = zext i1 %29 to i32
  %31 = sext i32 %30 to i64
  %32 = icmp ne i64 %31, 0
  br i1 %32, label %33, label %48

33:                                               ; preds = %25
  br label %34

34:                                               ; preds = %33
  br label %35

35:                                               ; preds = %34
  br label %36

36:                                               ; preds = %35
  %37 = load i64, ptr @H5E_FUNC_g, align 8
  %38 = load i64, ptr @H5E_CANTINIT_g, align 8
  %39 = call i32 (ptr, ptr, i32, i64, i64, ptr, ...) @H5E_printf_stack(ptr noundef @.str, ptr noundef @__func__.H5Iregister_future, i32 noundef 327, i64 noundef %37, i64 noundef %38, ptr noundef @.str.1)
  br label %40

40:                                               ; preds = %36
  store i8 1, ptr %11, align 1
  %41 = load i8, ptr %11, align 1
  %42 = trunc i8 %41 to i1
  %43 = zext i1 %42 to i8
  store i8 %43, ptr %11, align 1
  br label %44

44:                                               ; preds = %40
  br label %45

45:                                               ; preds = %44
  store i64 -1, ptr %9, align 8
  br label %133

46:                                               ; No predecessors!
  br label %47

47:                                               ; preds = %46
  br label %48

48:                                               ; preds = %47, %25
  br label %49

49:                                               ; preds = %48, %18
  %50 = call i32 @H5CX_push()
  %51 = icmp slt i32 %50, 0
  %52 = xor i1 %51, true
  %53 = xor i1 %52, true
  %54 = zext i1 %53 to i32
  %55 = sext i32 %54 to i64
  %56 = icmp ne i64 %55, 0
  br i1 %56, label %57, label %72

57:                                               ; preds = %49
  br label %58

58:                                               ; preds = %57
  br label %59

59:                                               ; preds = %58
  br label %60

60:                                               ; preds = %59
  %61 = load i64, ptr @H5E_FUNC_g, align 8
  %62 = load i64, ptr @H5E_CANTSET_g, align 8
  %63 = call i32 (ptr, ptr, i32, i64, i64, ptr, ...) @H5E_printf_stack(ptr noundef @.str, ptr noundef @__func__.H5Iregister_future, i32 noundef 327, i64 noundef %61, i64 noundef %62, ptr noundef @.str.2)
  br label %64

64:                                               ; preds = %60
  store i8 1, ptr %11, align 1
  %65 = load i8, ptr %11, align 1
  %66 = trunc i8 %65 to i1
  %67 = zext i1 %66 to i8
  store i8 %67, ptr %11, align 1
  br label %68

68:                                               ; preds = %64
  br label %69

69:                                               ; preds = %68
  store i64 -1, ptr %9, align 8
  br label %133

70:                                               ; No predecessors!
  br label %71

71:                                               ; preds = %70
  br label %73

72:                                               ; preds = %49
  store i8 1, ptr %10, align 1
  br label %73

73:                                               ; preds = %72, %71
  %74 = call i32 @H5E_clear_stack()
  %75 = load ptr, ptr %7, align 8
  %76 = icmp eq ptr null, %75
  br i1 %76, label %77, label %92

77:                                               ; preds = %73
  br label %78

78:                                               ; preds = %77
  br label %79

79:                                               ; preds = %78
  br label %80

80:                                               ; preds = %79
  %81 = load i64, ptr @H5E_ID_g, align 8
  %82 = load i64, ptr @H5E_BADVALUE_g, align 8
  %83 = call i32 (ptr, ptr, i32, i64, i64, ptr, ...) @H5E_printf_stack(ptr noundef @.str, ptr noundef @__func__.H5Iregister_future, i32 noundef 331, i64 noundef %81, i64 noundef %82, ptr noundef @.str.11)
  br label %84

84:                                               ; preds = %80
  store i8 1, ptr %11, align 1
  %85 = load i8, ptr %11, align 1
  %86 = trunc i8 %85 to i1
  %87 = zext i1 %86 to i8
  store i8 %87, ptr %11, align 1
  br label %88

88:                                               ; preds = %84
  br label %89

89:                                               ; preds = %88
  store i64 -1, ptr %9, align 8
  br label %133

90:                                               ; No predecessors!
  br label %91

91:                                               ; preds = %90
  br label %92

92:                                               ; preds = %91, %73
  %93 = load ptr, ptr %8, align 8
  %94 = icmp eq ptr null, %93
  br i1 %94, label %95, label %110

95:                                               ; preds = %92
  br label %96

96:                                               ; preds = %95
  br label %97

97:                                               ; preds = %96
  br label %98

98:                                               ; preds = %97
  %99 = load i64, ptr @H5E_ID_g, align 8
  %100 = load i64, ptr @H5E_BADVALUE_g, align 8
  %101 = call i32 (ptr, ptr, i32, i64, i64, ptr, ...) @H5E_printf_stack(ptr noundef @.str, ptr noundef @__func__.H5Iregister_future, i32 noundef 333, i64 noundef %99, i64 noundef %100, ptr noundef @.str.11)
  br label %102

102:                                              ; preds = %98
  store i8 1, ptr %11, align 1
  %103 = load i8, ptr %11, align 1
  %104 = trunc i8 %103 to i1
  %105 = zext i1 %104 to i8
  store i8 %105, ptr %11, align 1
  br label %106

106:                                              ; preds = %102
  br label %107

107:                                              ; preds = %106
  store i64 -1, ptr %9, align 8
  br label %133

108:                                              ; No predecessors!
  br label %109

109:                                              ; preds = %108
  br label %110

110:                                              ; preds = %109, %92
  %111 = load i32, ptr %5, align 4
  %112 = load ptr, ptr %6, align 8
  %113 = load ptr, ptr %7, align 8
  %114 = load ptr, ptr %8, align 8
  %115 = call i64 @H5I__register(i32 noundef %111, ptr noundef %112, i1 noundef zeroext true, ptr noundef %113, ptr noundef %114)
  store i64 %115, ptr %9, align 8
  %116 = icmp slt i64 %115, 0
  br i1 %116, label %117, label %132

117:                                              ; preds = %110
  br label %118

118:                                              ; preds = %117
  br label %119

119:                                              ; preds = %118
  br label %120

120:                                              ; preds = %119
  %121 = load i64, ptr @H5E_ID_g, align 8
  %122 = load i64, ptr @H5E_CANTREGISTER_g, align 8
  %123 = call i32 (ptr, ptr, i32, i64, i64, ptr, ...) @H5E_printf_stack(ptr noundef @.str, ptr noundef @__func__.H5Iregister_future, i32 noundef 337, i64 noundef %121, i64 noundef %122, ptr noundef @.str.10)
  br label %124

124:                                              ; preds = %120
  store i8 1, ptr %11, align 1
  %125 = load i8, ptr %11, align 1
  %126 = trunc i8 %125 to i1
  %127 = zext i1 %126 to i8
  store i8 %127, ptr %11, align 1
  br label %128

128:                                              ; preds = %124
  br label %129

129:                                              ; preds = %128
  store i64 -1, ptr %9, align 8
  br label %133

130:                                              ; No predecessors!
  br label %131

131:                                              ; preds = %130
  br label %132

132:                                              ; preds = %131, %110
  br label %133

133:                                              ; preds = %132, %129, %107, %89, %69, %45
  %134 = load i8, ptr %10, align 1
  %135 = trunc i8 %134 to i1
  %136 = xor i1 %135, true
  %137 = xor i1 %136, true
  %138 = zext i1 %137 to i32
  %139 = sext i32 %138 to i64
  %140 = icmp ne i64 %139, 0
  br i1 %140, label %141, label %143

141:                                              ; preds = %133
  %142 = call i32 @H5CX_pop(i1 noundef zeroext true)
  store i8 0, ptr %10, align 1
  br label %143

143:                                              ; preds = %141, %133
  %144 = load i8, ptr %11, align 1
  %145 = trunc i8 %144 to i1
  %146 = xor i1 %145, true
  %147 = xor i1 %146, true
  %148 = zext i1 %147 to i32
  %149 = sext i32 %148 to i64
  %150 = icmp ne i64 %149, 0
  br i1 %150, label %151, label %153

151:                                              ; preds = %143
  %152 = call i32 @H5E_dump_api_stack()
  br label %153

153:                                              ; preds = %151, %143
  %154 = load i64, ptr %9, align 8
  ret i64 %154
}