; Function Attrs: nounwind uwtable
define range(i64 -1, -9223372036854775808) i64 @H5Iregister_future(i32 noundef %0, ptr noundef %1, ptr noundef %2, ptr noundef %3) local_unnamed_addr #0 {
  %5 = load i8, ptr @H5_libinit_g, align 1
  %6 = trunc i8 %5 to i1
  %7 = load i8, ptr @H5_libterm_g, align 1
  %8 = trunc i8 %7 to i1
  %9 = select i1 %6, i1 true, i1 %8
  br i1 %9, label %17, label %10

10:                                               ; preds = %4
  %11 = tail call i32 @H5_init_library() #3
  %12 = icmp slt i32 %11, 0
  br i1 %12, label %13, label %17

13:                                               ; preds = %10
  %14 = load i64, ptr @H5E_FUNC_g, align 8
  %15 = load i64, ptr @H5E_CANTINIT_g, align 8
  %16 = tail call i32 (ptr, ptr, i32, i64, i64, ptr, ...) @H5E_printf_stack(ptr noundef nonnull @.str, ptr noundef nonnull @__func__.H5Iregister_future, i32 noundef 327, i64 noundef %14, i64 noundef %15, ptr noundef nonnull @.str.1) #3
  br label %.thread26

17:                                               ; preds = %10, %4
  %18 = tail call i32 @H5CX_push() #3
  %19 = icmp slt i32 %18, 0
  br i1 %19, label %20, label %24

20:                                               ; preds = %17
  %21 = load i64, ptr @H5E_FUNC_g, align 8
  %22 = load i64, ptr @H5E_CANTSET_g, align 8
  %23 = tail call i32 (ptr, ptr, i32, i64, i64, ptr, ...) @H5E_printf_stack(ptr noundef nonnull @.str, ptr noundef nonnull @__func__.H5Iregister_future, i32 noundef 327, i64 noundef %21, i64 noundef %22, ptr noundef nonnull @.str.2) #3
  br label %.thread26

24:                                               ; preds = %17
  %25 = tail call i32 @H5E_clear_stack() #3
  %26 = icmp eq ptr %2, null
  br i1 %26, label %27, label %31

27:                                               ; preds = %24
  %28 = load i64, ptr @H5E_ID_g, align 8
  %29 = load i64, ptr @H5E_BADVALUE_g, align 8
  %30 = tail call i32 (ptr, ptr, i32, i64, i64, ptr, ...) @H5E_printf_stack(ptr noundef nonnull @.str, ptr noundef nonnull @__func__.H5Iregister_future, i32 noundef 331, i64 noundef %28, i64 noundef %29, ptr noundef nonnull @.str.11) #3
  br label %.thread32

31:                                               ; preds = %24
  %32 = icmp eq ptr %3, null
  br i1 %32, label %33, label %37

33:                                               ; preds = %31
  %34 = load i64, ptr @H5E_ID_g, align 8
  %35 = load i64, ptr @H5E_BADVALUE_g, align 8
  %36 = tail call i32 (ptr, ptr, i32, i64, i64, ptr, ...) @H5E_printf_stack(ptr noundef nonnull @.str, ptr noundef nonnull @__func__.H5Iregister_future, i32 noundef 333, i64 noundef %34, i64 noundef %35, ptr noundef nonnull @.str.11) #3
  br label %.thread32

37:                                               ; preds = %31
  %38 = tail call i64 @H5I__register(i32 noundef %0, ptr noundef %1, i1 noundef zeroext true, ptr noundef nonnull %2, ptr noundef nonnull %3) #3
  %39 = icmp slt i64 %38, 0
  br i1 %39, label %40, label %45

40:                                               ; preds = %37
  %41 = load i64, ptr @H5E_ID_g, align 8
  %42 = load i64, ptr @H5E_CANTREGISTER_g, align 8
  %43 = tail call i32 (ptr, ptr, i32, i64, i64, ptr, ...) @H5E_printf_stack(ptr noundef nonnull @.str, ptr noundef nonnull @__func__.H5Iregister_future, i32 noundef 337, i64 noundef %41, i64 noundef %42, ptr noundef nonnull @.str.10) #3
  br label %.thread32

.thread32:                                        ; preds = %40, %33, %27
  %44 = tail call i32 @H5CX_pop(i1 noundef zeroext true) #3
  br label %.thread26

45:                                               ; preds = %37
  %46 = tail call i32 @H5CX_pop(i1 noundef zeroext true) #3
  br label %48

.thread26:                                        ; preds = %20, %13, %.thread32
  %47 = tail call i32 @H5E_dump_api_stack() #3
  br label %48

48:                                               ; preds = %45, %.thread26
  %.0142129 = phi i64 [ -1, %.thread26 ], [ %38, %45 ]
  ret i64 %.0142129
}